; ModuleID = 'source-C-CXX/15/1032.c'
source_filename = "source-C-CXX/15/1032.c"
target datalayout = "e-m:e-p270:32:32-p271:32:32-p272:64:64-i64:64-f80:128-n8:16:32:64-S128"
target triple = "x86_64-pc-linux-gnu"

@.str = private unnamed_addr constant [3 x i8] c"%d\00", align 1

; Function Attrs: nofree nounwind sspstrong uwtable
define dso_local i32 @MyInverseitoa(i32 %0, i8* nocapture %1, i32 %2) local_unnamed_addr #0 {
  br label %4

4:                                                ; preds = %4, %3
  %5 = phi i64 [ %14, %4 ], [ 0, %3 ]
  %6 = phi i32 [ %13, %4 ], [ %0, %3 ]
  %7 = srem i32 %6, %2
  %8 = trunc i32 %7 to i8
  %9 = getelementptr inbounds i8, i8* %1, i64 %5
  store i8 %8, i8* %9, align 1, !tbaa !5
  %10 = shl i32 %7, 24
  %11 = ashr exact i32 %10, 24
  %12 = tail call i32 (i8*, ...) @printf(i8* nonnull dereferenceable(1) getelementptr inbounds ([3 x i8], [3 x i8]* @.str, i64 0, i64 0), i32 %11)
  %13 = sdiv i32 %6, %2
  %14 = add nuw i64 %5, 1
  %15 = icmp eq i32 %13, 0
  br i1 %15, label %16, label %4, !llvm.loop !8

16:                                               ; preds = %4
  %17 = trunc i64 %5 to i32
  %18 = and i64 %14, 4294967295
  %19 = getelementptr inbounds i8, i8* %1, i64 %18
  store i8 0, i8* %19, align 1, !tbaa !5
  ret i32 %17
}

; Function Attrs: argmemonly mustprogress nofree nosync nounwind willreturn
declare void @llvm.lifetime.start.p0i8(i64 immarg, i8* nocapture) #1

; Function Attrs: nofree nounwind
declare noundef i32 @printf(i8* nocapture noundef readonly, ...) local_unnamed_addr #2

; Function Attrs: argmemonly mustprogress nofree nosync nounwind willreturn
declare void @llvm.lifetime.end.p0i8(i64 immarg, i8* nocapture) #1

; Function Attrs: nofree nounwind sspstrong uwtable
define dso_local i32 @main() local_unnamed_addr #0 {
  %1 = alloca i32, align 4
  %2 = bitcast i32* %1 to i8*
  call void @llvm.lifetime.start.p0i8(i64 4, i8* nonnull %2) #3
  %3 = call i32 (i8*, ...) @__isoc99_scanf(i8* getelementptr inbounds ([3 x i8], [3 x i8]* @.str, i64 0, i64 0), i32* nonnull %1)
  %4 = load i32, i32* %1, align 4, !tbaa !10
  %5 = icmp eq i32 %4, 0
  br i1 %5, label %6, label %8

6:                                                ; preds = %0
  %7 = call i32 (i8*, ...) @printf(i8* nonnull dereferenceable(1) getelementptr inbounds ([3 x i8], [3 x i8]* @.str, i64 0, i64 0), i32 0)
  br label %15

8:                                                ; preds = %0, %8
  %9 = phi i32 [ %12, %8 ], [ %4, %0 ]
  %10 = srem i32 %9, 10
  %11 = call i32 (i8*, ...) @printf(i8* nonnull dereferenceable(1) getelementptr inbounds ([3 x i8], [3 x i8]* @.str, i64 0, i64 0), i32 %10) #3
  %12 = sdiv i32 %9, 10
  %13 = add i32 %9, 9
  %14 = icmp ult i32 %13, 19
  br i1 %14, label %15, label %8, !llvm.loop !8

15:                                               ; preds = %8, %6
  call void @llvm.lifetime.end.p0i8(i64 4, i8* nonnull %2) #3
  ret i32 0
}

; Function Attrs: nofree nounwind
declare noundef i32 @__isoc99_scanf(i8* nocapture noundef readonly, ...) local_unnamed_addr #2


!llvm.module.flags = !{!0, !1, !2, !3}
!llvm.ident = !{!4}

!0 = !{i32 1, !"wchar_size", i32 4}
!1 = !{i32 7, !"PIC Level", i32 2}
!2 = !{i32 7, !"PIE Level", i32 2}
!3 = !{i32 7, !"uwtable", i32 1}
!4 = !{!"clang version 13.0.0"}
!5 = !{!6, !6, i64 0}
!6 = !{!"omnipotent char", !7, i64 0}
!7 = !{!"Simple C/C++ TBAA"}
!8 = distinct !{!8, !9}
!9 = !{!"llvm.loop.mustprogress"}
!10 = !{!11, !11, i64 0}
!11 = !{!"int", !6, i64 0}
